target datalayout = "e-m:e-p270:32:32-p271:32:32-p272:64:64-i64:64-i128:128-f80:128-n8:16:32:64-S128"
target triple = "x86_64-pc-linux-gnu"

%struct.AVFilterContext = type { ptr, ptr, ptr, ptr, ptr, i32, ptr, ptr, i32, ptr, ptr, i32, i32, ptr, ptr, ptr, ptr, i32, ptr, i32, i32 }
%struct.DetelecineContext = type { ptr, i32, ptr, i32, i32, i32, i32, i64, %struct.AVRational, %struct.AVRational, i32, i32, [4 x i32], [4 x i32], [2 x ptr], ptr }
%struct.AVRational = type { i32, i32 }

@.str.22 = private unnamed_addr constant [22 x i8] c"No pattern provided.\0A\00", align 1
@.str.23 = private unnamed_addr constant [51 x i8] c"Provided pattern includes non-numeric characters.\0A\00", align 1
@.str.24 = private unnamed_addr constant [34 x i8] c"Provided start_frame is too big.\0A\00", align 1
@.str.25 = private unnamed_addr constant [84 x i8] c"Detelecine pattern %s removes up to %d frames per frame, pts advance factor: %d/%d\0A\00", align 1

; Function Attrs: inlinehint nounwind willreturn memory(none) uwtable
define internal i32 @av_isdigit(i32 noundef %0) #10 {
  %2 = alloca i32, align 4
  store i32 %0, ptr %2, align 4, !tbaa !24
  %3 = load i32, ptr %2, align 4, !tbaa !24
  %4 = icmp sge i32 %3, 48
  br i1 %4, label %5, label %8

5:                                                ; preds = %1
  %6 = load i32, ptr %2, align 4, !tbaa !24
  %7 = icmp sle i32 %6, 57
  br label %8

8:                                                ; preds = %5, %1
  %9 = phi i1 [ false, %1 ], [ %7, %5 ]
  %10 = zext i1 %9 to i32
  ret i32 %10
}

; Function Attrs: cold nounwind optsize uwtable
define internal i32 @init(ptr noundef %0) #0 {
  %2 = alloca i32, align 4
  %3 = alloca ptr, align 8
  %4 = alloca ptr, align 8
  %5 = alloca ptr, align 8
  %6 = alloca i32, align 4
  %7 = alloca i32, align 4
  %8 = alloca i32, align 4
  %9 = alloca i32, align 4
  store ptr %0, ptr %3, align 8, !tbaa !4
  call void @llvm.lifetime.start.p0(i64 8, ptr %4) #11
  %10 = load ptr, ptr %3, align 8, !tbaa !4
  %11 = getelementptr inbounds nuw %struct.AVFilterContext, ptr %10, i32 0, i32 9
  %12 = load ptr, ptr %11, align 8, !tbaa !9
  store ptr %12, ptr %4, align 8, !tbaa !22
  call void @llvm.lifetime.start.p0(i64 8, ptr %5) #11
  call void @llvm.lifetime.start.p0(i64 4, ptr %6) #11
  store i32 0, ptr %6, align 4, !tbaa !24
  call void @llvm.lifetime.start.p0(i64 4, ptr %7) #11
  store i32 0, ptr %7, align 4, !tbaa !24
  %13 = load ptr, ptr %4, align 8, !tbaa !22
  %14 = getelementptr inbounds nuw %struct.DetelecineContext, ptr %13, i32 0, i32 2
  %15 = load ptr, ptr %14, align 8, !tbaa !25
  %16 = call i64 @strlen(ptr noundef %15) #12
  %17 = icmp ne i64 %16, 0
  br i1 %17, label %20, label %18

18:                                               ; preds = %1
  %19 = load ptr, ptr %3, align 8, !tbaa !4
  call void (ptr, i32, ptr, ...) @av_log(ptr noundef %19, i32 noundef 16, ptr noundef @.str.22)
  store i32 -1094995529, ptr %2, align 4
  store i32 1, ptr %8, align 4
  br label %151

20:                                               ; preds = %1
  %21 = load ptr, ptr %4, align 8, !tbaa !22
  %22 = getelementptr inbounds nuw %struct.DetelecineContext, ptr %21, i32 0, i32 2
  %23 = load ptr, ptr %22, align 8, !tbaa !25
  store ptr %23, ptr %5, align 8, !tbaa !30
  br label %24

24:                                               ; preds = %72, %20
  %25 = load ptr, ptr %5, align 8, !tbaa !30
  %26 = load i8, ptr %25, align 1, !tbaa !31
  %27 = icmp ne i8 %26, 0
  br i1 %27, label %28, label %75

28:                                               ; preds = %24
  %29 = load ptr, ptr %5, align 8, !tbaa !30
  %30 = load i8, ptr %29, align 1, !tbaa !31
  %31 = sext i8 %30 to i32
  %32 = call i32 @av_isdigit(i32 noundef %31) #13
  %33 = icmp ne i32 %32, 0
  br i1 %33, label %36, label %34

34:                                               ; preds = %28
  %35 = load ptr, ptr %3, align 8, !tbaa !4
  call void (ptr, i32, ptr, ...) @av_log(ptr noundef %35, i32 noundef 16, ptr noundef @.str.23)
  store i32 -1094995529, ptr %2, align 4
  store i32 1, ptr %8, align 4
  br label %151

36:                                               ; preds = %28
  %37 = load ptr, ptr %5, align 8, !tbaa !30
  %38 = load i8, ptr %37, align 1, !tbaa !31
  %39 = sext i8 %38 to i32
  %40 = sub nsw i32 %39, 48
  %41 = load i32, ptr %7, align 4, !tbaa !24
  %42 = add nsw i32 %41, %40
  store i32 %42, ptr %7, align 4, !tbaa !24
  %43 = load ptr, ptr %5, align 8, !tbaa !30
  %44 = load i8, ptr %43, align 1, !tbaa !31
  %45 = sext i8 %44 to i32
  %46 = sub nsw i32 %45, 48
  %47 = load i32, ptr %6, align 4, !tbaa !24
  %48 = icmp sgt i32 %46, %47
  br i1 %48, label %49, label %54

49:                                               ; preds = %36
  %50 = load ptr, ptr %5, align 8, !tbaa !30
  %51 = load i8, ptr %50, align 1, !tbaa !31
  %52 = sext i8 %51 to i32
  %53 = sub nsw i32 %52, 48
  br label %56

54:                                               ; preds = %36
  %55 = load i32, ptr %6, align 4, !tbaa !24
  br label %56

56:                                               ; preds = %54, %49
  %57 = phi i32 [ %53, %49 ], [ %55, %54 ]
  store i32 %57, ptr %6, align 4, !tbaa !24
  %58 = load ptr, ptr %5, align 8, !tbaa !30
  %59 = load i8, ptr %58, align 1, !tbaa !31
  %60 = sext i8 %59 to i32
  %61 = sub nsw i32 %60, 48
  %62 = load ptr, ptr %4, align 8, !tbaa !22
  %63 = getelementptr inbounds nuw %struct.DetelecineContext, ptr %62, i32 0, i32 8
  %64 = getelementptr inbounds nuw %struct.AVRational, ptr %63, i32 0, i32 0
  %65 = load i32, ptr %64, align 8, !tbaa !32
  %66 = add nsw i32 %65, %61
  store i32 %66, ptr %64, align 8, !tbaa !32
  %67 = load ptr, ptr %4, align 8, !tbaa !22
  %68 = getelementptr inbounds nuw %struct.DetelecineContext, ptr %67, i32 0, i32 8
  %69 = getelementptr inbounds nuw %struct.AVRational, ptr %68, i32 0, i32 1
  %70 = load i32, ptr %69, align 4, !tbaa !33
  %71 = add nsw i32 %70, 2
  store i32 %71, ptr %69, align 4, !tbaa !33
  br label %72

72:                                               ; preds = %56
  %73 = load ptr, ptr %5, align 8, !tbaa !30
  %74 = getelementptr inbounds nuw i8, ptr %73, i32 1
  store ptr %74, ptr %5, align 8, !tbaa !30
  br label %24, !llvm.loop !34

75:                                               ; preds = %24
  %76 = load ptr, ptr %4, align 8, !tbaa !22
  %77 = getelementptr inbounds nuw %struct.DetelecineContext, ptr %76, i32 0, i32 3
  %78 = load i32, ptr %77, align 8, !tbaa !36
  %79 = load i32, ptr %7, align 4, !tbaa !24
  %80 = icmp sge i32 %78, %79
  br i1 %80, label %81, label %83

81:                                               ; preds = %75
  %82 = load ptr, ptr %3, align 8, !tbaa !4
  call void (ptr, i32, ptr, ...) @av_log(ptr noundef %82, i32 noundef 16, ptr noundef @.str.24)
  store i32 -1094995529, ptr %2, align 4
  store i32 1, ptr %8, align 4
  br label %151

83:                                               ; preds = %75
  %84 = load ptr, ptr %4, align 8, !tbaa !22
  %85 = getelementptr inbounds nuw %struct.DetelecineContext, ptr %84, i32 0, i32 6
  store i32 0, ptr %85, align 4, !tbaa !37
  %86 = load ptr, ptr %4, align 8, !tbaa !22
  %87 = getelementptr inbounds nuw %struct.DetelecineContext, ptr %86, i32 0, i32 5
  store i32 0, ptr %87, align 8, !tbaa !38
  %88 = load ptr, ptr %4, align 8, !tbaa !22
  %89 = getelementptr inbounds nuw %struct.DetelecineContext, ptr %88, i32 0, i32 7
  store i64 -9223372036854775808, ptr %89, align 8, !tbaa !39
  %90 = load ptr, ptr %4, align 8, !tbaa !22
  %91 = getelementptr inbounds nuw %struct.DetelecineContext, ptr %90, i32 0, i32 4
  store i32 0, ptr %91, align 4, !tbaa !40
  %92 = load ptr, ptr %4, align 8, !tbaa !22
  %93 = getelementptr inbounds nuw %struct.DetelecineContext, ptr %92, i32 0, i32 3
  %94 = load i32, ptr %93, align 8, !tbaa !36
  %95 = icmp ne i32 %94, 0
  br i1 %95, label %96, label %135

96:                                               ; preds = %83
  call void @llvm.lifetime.start.p0(i64 4, ptr %9) #11
  store i32 0, ptr %9, align 4, !tbaa !24
  %97 = load ptr, ptr %4, align 8, !tbaa !22
  %98 = getelementptr inbounds nuw %struct.DetelecineContext, ptr %97, i32 0, i32 2
  %99 = load ptr, ptr %98, align 8, !tbaa !25
  store ptr %99, ptr %5, align 8, !tbaa !30
  br label %100

100:                                              ; preds = %131, %96
  %101 = load ptr, ptr %5, align 8, !tbaa !30
  %102 = load i8, ptr %101, align 1, !tbaa !31
  %103 = icmp ne i8 %102, 0
  br i1 %103, label %104, label %134

104:                                              ; preds = %100
  %105 = load ptr, ptr %5, align 8, !tbaa !30
  %106 = load i8, ptr %105, align 1, !tbaa !31
  %107 = sext i8 %106 to i32
  %108 = sub nsw i32 %107, 48
  %109 = load i32, ptr %9, align 4, !tbaa !24
  %110 = add nsw i32 %109, %108
  store i32 %110, ptr %9, align 4, !tbaa !24
  %111 = load ptr, ptr %4, align 8, !tbaa !22
  %112 = getelementptr inbounds nuw %struct.DetelecineContext, ptr %111, i32 0, i32 5
  %113 = load i32, ptr %112, align 8, !tbaa !38
  %114 = add i32 %113, 1
  store i32 %114, ptr %112, align 8, !tbaa !38
  %115 = load i32, ptr %9, align 4, !tbaa !24
  %116 = load ptr, ptr %4, align 8, !tbaa !22
  %117 = getelementptr inbounds nuw %struct.DetelecineContext, ptr %116, i32 0, i32 3
  %118 = load i32, ptr %117, align 8, !tbaa !36
  %119 = mul nsw i32 2, %118
  %120 = icmp sge i32 %115, %119
  br i1 %120, label %121, label %130

121:                                              ; preds = %104
  %122 = load i32, ptr %9, align 4, !tbaa !24
  %123 = load ptr, ptr %4, align 8, !tbaa !22
  %124 = getelementptr inbounds nuw %struct.DetelecineContext, ptr %123, i32 0, i32 3
  %125 = load i32, ptr %124, align 8, !tbaa !36
  %126 = mul nsw i32 2, %125
  %127 = sub nsw i32 %122, %126
  %128 = load ptr, ptr %4, align 8, !tbaa !22
  %129 = getelementptr inbounds nuw %struct.DetelecineContext, ptr %128, i32 0, i32 4
  store i32 %127, ptr %129, align 4, !tbaa !40
  br label %134

130:                                              ; preds = %104
  br label %131

131:                                              ; preds = %130
  %132 = load ptr, ptr %5, align 8, !tbaa !30
  %133 = getelementptr inbounds nuw i8, ptr %132, i32 1
  store ptr %133, ptr %5, align 8, !tbaa !30
  br label %100, !llvm.loop !41

134:                                              ; preds = %121, %100
  call void @llvm.lifetime.end.p0(i64 4, ptr %9) #11
  br label %135

135:                                              ; preds = %134, %83
  %136 = load ptr, ptr %3, align 8, !tbaa !4
  %137 = load ptr, ptr %4, align 8, !tbaa !22
  %138 = getelementptr inbounds nuw %struct.DetelecineContext, ptr %137, i32 0, i32 2
  %139 = load ptr, ptr %138, align 8, !tbaa !25
  %140 = load i32, ptr %6, align 4, !tbaa !24
  %141 = add nsw i32 %140, 1
  %142 = sdiv i32 %141, 2
  %143 = load ptr, ptr %4, align 8, !tbaa !22
  %144 = getelementptr inbounds nuw %struct.DetelecineContext, ptr %143, i32 0, i32 8
  %145 = getelementptr inbounds nuw %struct.AVRational, ptr %144, i32 0, i32 0
  %146 = load i32, ptr %145, align 8, !tbaa !32
  %147 = load ptr, ptr %4, align 8, !tbaa !22
  %148 = getelementptr inbounds nuw %struct.DetelecineContext, ptr %147, i32 0, i32 8
  %149 = getelementptr inbounds nuw %struct.AVRational, ptr %148, i32 0, i32 1
  %150 = load i32, ptr %149, align 4, !tbaa !33
  call void (ptr, i32, ptr, ...) @av_log(ptr noundef %136, i32 noundef 32, ptr noundef @.str.25, ptr noundef %139, i32 noundef %142, i32 noundef %146, i32 noundef %150)
  store i32 0, ptr %2, align 4
  store i32 1, ptr %8, align 4
  br label %151

151:                                              ; preds = %135, %81, %34, %18
  call void @llvm.lifetime.end.p0(i64 4, ptr %7) #11
  call void @llvm.lifetime.end.p0(i64 4, ptr %6) #11
  call void @llvm.lifetime.end.p0(i64 8, ptr %5) #11
  call void @llvm.lifetime.end.p0(i64 8, ptr %4) #11
  %152 = load i32, ptr %2, align 4
  ret i32 %152
}