; Function Attrs: cold nounwind optsize uwtable
define internal range(i32 -1094995529, 1) i32 @init(ptr noundef %0) #0 {
  %2 = getelementptr inbounds nuw i8, ptr %0, i64 72
  %3 = load ptr, ptr %2, align 8, !tbaa !4
  %4 = getelementptr inbounds nuw i8, ptr %3, i64 16
  %5 = load ptr, ptr %4, align 8, !tbaa !20
  %char0 = load i8, ptr %5, align 1
  %.not = icmp eq i8 %char0, 0
  br i1 %.not, label %8, label %.preheader57

.preheader57:                                     ; preds = %1
  %6 = getelementptr inbounds nuw i8, ptr %3, i64 48
  %7 = getelementptr inbounds nuw i8, ptr %3, i64 52
  br label %9

8:                                                ; preds = %1
  tail call void (ptr, i32, ptr, ...) @av_log(ptr noundef nonnull %0, i32 noundef 16, ptr noundef nonnull @.str.22) #5
  br label %47

9:                                                ; preds = %.preheader57, %15
  %.04163 = phi i32 [ 0, %.preheader57 ], [ %16, %15 ]
  %.04262 = phi i32 [ 0, %.preheader57 ], [ %..042, %15 ]
  %.04361 = phi ptr [ %5, %.preheader57 ], [ %21, %15 ]
  %10 = phi i8 [ %char0, %.preheader57 ], [ %.pr, %15 ]
  %11 = sext i8 %10 to i32
  %12 = add nsw i32 %11, -48
  %13 = icmp ugt i32 %12, 9
  br i1 %13, label %14, label %15

14:                                               ; preds = %9
  tail call void (ptr, i32, ptr, ...) @av_log(ptr noundef %0, i32 noundef 16, ptr noundef nonnull @.str.23) #5
  br label %47

15:                                               ; preds = %9
  %16 = add nuw nsw i32 %.04163, %12
  %..042 = tail call i32 @llvm.smax.i32(i32 %12, i32 %.04262)
  %17 = load i32, ptr %6, align 8, !tbaa !25
  %18 = add nsw i32 %17, %12
  store i32 %18, ptr %6, align 8, !tbaa !25
  %19 = load i32, ptr %7, align 4, !tbaa !26
  %20 = add nsw i32 %19, 2
  store i32 %20, ptr %7, align 4, !tbaa !26
  %21 = getelementptr inbounds nuw i8, ptr %.04361, i64 1
  %.pr = load i8, ptr %21, align 1, !tbaa !27
  %.not51 = icmp eq i8 %.pr, 0
  br i1 %.not51, label %22, label %9, !llvm.loop !28

22:                                               ; preds = %15
  %23 = getelementptr inbounds nuw i8, ptr %3, i64 24
  %24 = load i32, ptr %23, align 8, !tbaa !30
  %.not52 = icmp slt i32 %24, %16
  br i1 %.not52, label %26, label %25

25:                                               ; preds = %22
  tail call void (ptr, i32, ptr, ...) @av_log(ptr noundef %0, i32 noundef 16, ptr noundef nonnull @.str.24) #5
  br label %47

26:                                               ; preds = %22
  %27 = getelementptr inbounds nuw i8, ptr %3, i64 36
  store i32 0, ptr %27, align 4, !tbaa !31
  %28 = getelementptr inbounds nuw i8, ptr %3, i64 32
  store i32 0, ptr %28, align 8, !tbaa !32
  %29 = getelementptr inbounds nuw i8, ptr %3, i64 40
  store i64 -9223372036854775808, ptr %29, align 8, !tbaa !33
  %30 = getelementptr inbounds nuw i8, ptr %3, i64 28
  store i32 0, ptr %30, align 4, !tbaa !34
  %.not53 = icmp eq i32 %24, 0
  br i1 %.not53, label %.loopexit, label %.preheader

.preheader:                                       ; preds = %26
  %31 = load i8, ptr %5, align 1, !tbaa !27
  %.not5464 = icmp eq i8 %31, 0
  br i1 %.not5464, label %.loopexit, label %.lr.ph

.lr.ph:                                           ; preds = %.preheader
  %32 = shl nsw i32 %24, 1
  br label %36

33:                                               ; preds = %36
  %34 = getelementptr inbounds nuw i8, ptr %.165, i64 1
  %35 = load i8, ptr %34, align 1, !tbaa !27
  %.not54 = icmp eq i8 %35, 0
  br i1 %.not54, label %.loopexit, label %36, !llvm.loop !35

36:                                               ; preds = %.lr.ph, %33
  %37 = phi i32 [ 0, %.lr.ph ], [ %42, %33 ]
  %38 = phi i8 [ %31, %.lr.ph ], [ %35, %33 ]
  %.066 = phi i32 [ 0, %.lr.ph ], [ %41, %33 ]
  %.165 = phi ptr [ %5, %.lr.ph ], [ %34, %33 ]
  %39 = sext i8 %38 to i32
  %40 = add i32 %.066, -48
  %41 = add i32 %40, %39
  %42 = add i32 %37, 1
  store i32 %42, ptr %28, align 8, !tbaa !32
  %.not55 = icmp slt i32 %41, %32
  br i1 %.not55, label %33, label %43

43:                                               ; preds = %36
  %44 = sub nsw i32 %41, %32
  store i32 %44, ptr %30, align 4, !tbaa !34
  br label %.loopexit

.loopexit:                                        ; preds = %33, %.preheader, %43, %26
  %45 = add nuw nsw i32 %..042, 1
  %46 = lshr i32 %45, 1
  tail call void (ptr, i32, ptr, ...) @av_log(ptr noundef %0, i32 noundef 32, ptr noundef nonnull @.str.25, ptr noundef nonnull %5, i32 noundef %46, i32 noundef %18, i32 noundef %20) #5
  br label %47

47:                                               ; preds = %.loopexit, %25, %14, %8
  %.044 = phi i32 [ -1094995529, %14 ], [ -1094995529, %25 ], [ 0, %.loopexit ], [ -1094995529, %8 ]
  ret i32 %.044
}